; ModuleID = '58/1299.c'
source_filename = "58/1299.c"
target datalayout = "e-m:e-p270:32:32-p271:32:32-p272:64:64-i64:64-f80:128-n8:16:32:64-S128"
target triple = "x86_64-pc-linux-gnu"

@.str = private unnamed_addr constant [3 x i8] c"0\0A\00", align 1
@.str.1 = private unnamed_addr constant [3 x i8] c"1\0A\00", align 1

; Function Attrs: noinline nounwind uwtable
define dso_local i32 @main() #0 {
  %1 = alloca i32, align 4
  %2 = alloca i32, align 4
  %3 = alloca i32, align 4
  %4 = alloca i32, align 4
  %5 = alloca i32, align 4
  %6 = alloca i32, align 4
  %7 = alloca [81 x i8], align 16
  %8 = alloca [15 x i8], align 1
  %9 = alloca i8*, align 8
  store i32 0, i32* %1, align 4
  store i32 1, i32* %6, align 4
  %10 = getelementptr inbounds [15 x i8], [15 x i8]* %8, i64 0, i64 0
  %11 = call i32 (i8*, ...) bitcast (i32 (...)* @gets to i32 (i8*, ...)*)(i8* %10)
  %12 = getelementptr inbounds [15 x i8], [15 x i8]* %8, i64 0, i64 0
  %13 = call i32 @atoi(i8* %12) #3
  store i32 %13, i32* %2, align 4
  store i32 0, i32* %3, align 4
  br label %14

14:                                               ; preds = %104, %0
  %15 = load i32, i32* %3, align 4
  %16 = load i32, i32* %2, align 4
  %17 = icmp slt i32 %15, %16
  br i1 %17, label %18, label %107

18:                                               ; preds = %14
  store i32 1, i32* %6, align 4
  %19 = getelementptr inbounds [81 x i8], [81 x i8]* %7, i64 0, i64 0
  %20 = call i32 (i8*, ...) bitcast (i32 (...)* @gets to i32 (i8*, ...)*)(i8* %19)
  %21 = getelementptr inbounds [81 x i8], [81 x i8]* %7, i64 0, i64 0
  store i8* %21, i8** %9, align 8
  %22 = load i8*, i8** %9, align 8
  %23 = load i8, i8* %22, align 1
  %24 = sext i8 %23 to i32
  %25 = icmp ne i32 %24, 95
  br i1 %25, label %26, label %48

26:                                               ; preds = %18
  %27 = load i8*, i8** %9, align 8
  %28 = load i8, i8* %27, align 1
  %29 = sext i8 %28 to i32
  %30 = icmp sgt i32 %29, 90
  br i1 %30, label %36, label %31

31:                                               ; preds = %26
  %32 = load i8*, i8** %9, align 8
  %33 = load i8, i8* %32, align 1
  %34 = sext i8 %33 to i32
  %35 = icmp slt i32 %34, 65
  br i1 %35, label %36, label %48

36:                                               ; preds = %31, %26
  %37 = load i8*, i8** %9, align 8
  %38 = load i8, i8* %37, align 1
  %39 = sext i8 %38 to i32
  %40 = icmp sgt i32 %39, 122
  br i1 %40, label %46, label %41

41:                                               ; preds = %36
  %42 = load i8*, i8** %9, align 8
  %43 = load i8, i8* %42, align 1
  %44 = sext i8 %43 to i32
  %45 = icmp slt i32 %44, 97
  br i1 %45, label %46, label %48

46:                                               ; preds = %41, %36
  %47 = call i32 (i8*, ...) @printf(i8* getelementptr inbounds ([3 x i8], [3 x i8]* @.str, i64 0, i64 0))
  store i32 0, i32* %6, align 4
  br label %98

48:                                               ; preds = %41, %31, %18
  %49 = getelementptr inbounds [81 x i8], [81 x i8]* %7, i64 0, i64 0
  %50 = getelementptr inbounds i8, i8* %49, i64 1
  store i8* %50, i8** %9, align 8
  br label %51

51:                                               ; preds = %94, %48
  %52 = load i8*, i8** %9, align 8
  %53 = load i8, i8* %52, align 1
  %54 = sext i8 %53 to i32
  %55 = icmp ne i32 %54, 0
  br i1 %55, label %56, label %97

56:                                               ; preds = %51
  %57 = load i8*, i8** %9, align 8
  %58 = load i8, i8* %57, align 1
  %59 = sext i8 %58 to i32
  %60 = icmp ne i32 %59, 95
  br i1 %60, label %61, label %93

61:                                               ; preds = %56
  %62 = load i8*, i8** %9, align 8
  %63 = load i8, i8* %62, align 1
  %64 = sext i8 %63 to i32
  %65 = icmp sgt i32 %64, 57
  br i1 %65, label %71, label %66

66:                                               ; preds = %61
  %67 = load i8*, i8** %9, align 8
  %68 = load i8, i8* %67, align 1
  %69 = sext i8 %68 to i32
  %70 = icmp slt i32 %69, 48
  br i1 %70, label %71, label %93

71:                                               ; preds = %66, %61
  %72 = load i8*, i8** %9, align 8
  %73 = load i8, i8* %72, align 1
  %74 = sext i8 %73 to i32
  %75 = icmp sgt i32 %74, 90
  br i1 %75, label %81, label %76

76:                                               ; preds = %71
  %77 = load i8*, i8** %9, align 8
  %78 = load i8, i8* %77, align 1
  %79 = sext i8 %78 to i32
  %80 = icmp slt i32 %79, 65
  br i1 %80, label %81, label %93

81:                                               ; preds = %76, %71
  %82 = load i8*, i8** %9, align 8
  %83 = load i8, i8* %82, align 1
  %84 = sext i8 %83 to i32
  %85 = icmp sgt i32 %84, 122
  br i1 %85, label %91, label %86

86:                                               ; preds = %81
  %87 = load i8*, i8** %9, align 8
  %88 = load i8, i8* %87, align 1
  %89 = sext i8 %88 to i32
  %90 = icmp slt i32 %89, 97
  br i1 %90, label %91, label %93

91:                                               ; preds = %86, %81
  %92 = call i32 (i8*, ...) @printf(i8* getelementptr inbounds ([3 x i8], [3 x i8]* @.str, i64 0, i64 0))
  store i32 0, i32* %6, align 4
  br label %97

93:                                               ; preds = %86, %76, %66, %56
  br label %94

94:                                               ; preds = %93
  %95 = load i8*, i8** %9, align 8
  %96 = getelementptr inbounds i8, i8* %95, i32 1
  store i8* %96, i8** %9, align 8
  br label %51

97:                                               ; preds = %91, %51
  br label %98

98:                                               ; preds = %97, %46
  %99 = load i32, i32* %6, align 4
  %100 = icmp ne i32 %99, 0
  br i1 %100, label %101, label %103

101:                                              ; preds = %98
  %102 = call i32 (i8*, ...) @printf(i8* getelementptr inbounds ([3 x i8], [3 x i8]* @.str.1, i64 0, i64 0))
  br label %103

103:                                              ; preds = %101, %98
  br label %104

104:                                              ; preds = %103
  %105 = load i32, i32* %3, align 4
  %106 = add nsw i32 %105, 1
  store i32 %106, i32* %3, align 4
  br label %14

107:                                              ; preds = %14
  ret i32 0
}

declare dso_local i32 @gets(...) #1

; Function Attrs: nounwind readonly
declare dso_local i32 @atoi(i8*) #2

declare dso_local i32 @printf(i8*, ...) #1


!llvm.module.flags = !{!0}
!llvm.ident = !{!1}

!0 = !{i32 1, !"wchar_size", i32 4}
!1 = !{!"clang version 10.0.0-4ubuntu1 "}
